target datalayout = "e-m:e-p270:32:32-p271:32:32-p272:64:64-i64:64-i128:128-f80:128-n8:16:32:64-S128"
target triple = "x86_64-pc-linux-gnu"

%"class.google::protobuf::StringPiece" = type { ptr, i64 }
%"class.google::protobuf::strings::ByteSource" = type { ptr }
%"class.google::protobuf::strings::LimitByteSource" = type { %"class.google::protobuf::strings::ByteSource", ptr, i64 }

; Function Attrs: mustprogress nounwind uwtable
define linkonce_odr void @_ZN6google8protobuf11StringPiece3setEPKcl(ptr noundef nonnull align 8 dereferenceable(16) %0, ptr noundef %1, i64 noundef %2) #5 comdat align 2 {
  %4 = alloca ptr, align 8
  %5 = alloca ptr, align 8
  %6 = alloca i64, align 8
  store ptr %0, ptr %4, align 8
  store ptr %1, ptr %5, align 8
  store i64 %2, ptr %6, align 8
  %7 = load ptr, ptr %4, align 8
  %8 = load ptr, ptr %5, align 8
  %9 = getelementptr inbounds %"class.google::protobuf::StringPiece", ptr %7, i32 0, i32 0
  store ptr %8, ptr %9, align 8
  %10 = load i64, ptr %6, align 8
  %11 = getelementptr inbounds %"class.google::protobuf::StringPiece", ptr %7, i32 0, i32 1
  store i64 %10, ptr %11, align 8
  ret void
}

; Function Attrs: mustprogress nounwind uwtable
define linkonce_odr noundef ptr @_ZNK6google8protobuf11StringPiece4dataEv(ptr noundef nonnull align 8 dereferenceable(16) %0) #5 comdat align 2 {
  %2 = alloca ptr, align 8
  store ptr %0, ptr %2, align 8
  %3 = load ptr, ptr %2, align 8
  %4 = getelementptr inbounds %"class.google::protobuf::StringPiece", ptr %3, i32 0, i32 0
  %5 = load ptr, ptr %4, align 8
  ret ptr %5
}

; Function Attrs: mustprogress nounwind uwtable
define linkonce_odr noundef i64 @_ZNK6google8protobuf11StringPiece4sizeEv(ptr noundef nonnull align 8 dereferenceable(16) %0) #5 comdat align 2 {
  %2 = alloca ptr, align 8
  store ptr %0, ptr %2, align 8
  %3 = load ptr, ptr %2, align 8
  %4 = getelementptr inbounds %"class.google::protobuf::StringPiece", ptr %3, i32 0, i32 1
  %5 = load i64, ptr %4, align 8
  ret i64 %5
}

; Function Attrs: mustprogress uwtable
define { ptr, i64 } @_ZN6google8protobuf7strings15LimitByteSource4PeekEv(ptr noundef nonnull align 8 dereferenceable(24) %0) unnamed_addr #4 align 2 {
  %2 = alloca %"class.google::protobuf::StringPiece", align 8
  %3 = alloca ptr, align 8
  store ptr %0, ptr %3, align 8
  %4 = load ptr, ptr %3, align 8
  %5 = getelementptr inbounds %"class.google::protobuf::strings::LimitByteSource", ptr %4, i32 0, i32 1
  %6 = load ptr, ptr %5, align 8
  %7 = load ptr, ptr %6, align 8
  %8 = getelementptr inbounds ptr, ptr %7, i64 3
  %9 = load ptr, ptr %8, align 8
  %10 = call { ptr, i64 } %9(ptr noundef nonnull align 8 dereferenceable(8) %6)
  %11 = getelementptr inbounds { ptr, i64 }, ptr %2, i32 0, i32 0
  %12 = extractvalue { ptr, i64 } %10, 0
  store ptr %12, ptr %11, align 8
  %13 = getelementptr inbounds { ptr, i64 }, ptr %2, i32 0, i32 1
  %14 = extractvalue { ptr, i64 } %10, 1
  store i64 %14, ptr %13, align 8
  %15 = call noundef i64 @_ZNK6google8protobuf11StringPiece4sizeEv(ptr noundef nonnull align 8 dereferenceable(16) %2)
  %16 = getelementptr inbounds %"class.google::protobuf::strings::LimitByteSource", ptr %4, i32 0, i32 2
  %17 = load i64, ptr %16, align 8
  %18 = icmp ugt i64 %15, %17
  br i1 %18, label %19, label %23

19:                                               ; preds = %1
  %20 = call noundef ptr @_ZNK6google8protobuf11StringPiece4dataEv(ptr noundef nonnull align 8 dereferenceable(16) %2)
  %21 = getelementptr inbounds %"class.google::protobuf::strings::LimitByteSource", ptr %4, i32 0, i32 2
  %22 = load i64, ptr %21, align 8
  call void @_ZN6google8protobuf11StringPiece3setEPKcl(ptr noundef nonnull align 8 dereferenceable(16) %2, ptr noundef %20, i64 noundef %22)
  br label %23

23:                                               ; preds = %19, %1
  %24 = load { ptr, i64 }, ptr %2, align 8
  ret { ptr, i64 } %24
}