; Function Attrs: mustprogress uwtable
define { ptr, i64 } @_ZN6google8protobuf7strings15LimitByteSource4PeekEv(ptr nocapture noundef nonnull readonly align 8 dereferenceable(24) %0) unnamed_addr #3 align 2 {
  %2 = getelementptr inbounds i8, ptr %0, i64 8
  %3 = load ptr, ptr %2, align 8
  %4 = load ptr, ptr %3, align 8
  %5 = getelementptr inbounds i8, ptr %4, i64 24
  %6 = load ptr, ptr %5, align 8
  %7 = tail call { ptr, i64 } %6(ptr noundef nonnull align 8 dereferenceable(8) %3)
  %8 = extractvalue { ptr, i64 } %7, 1
  %9 = getelementptr inbounds i8, ptr %0, i64 16
  %10 = load i64, ptr %9, align 8
  %spec.select = tail call i64 @llvm.umin.i64(i64 %8, i64 %10)
  %.fca.1.insert = insertvalue { ptr, i64 } %7, i64 %spec.select, 1
  ret { ptr, i64 } %.fca.1.insert
}